target datalayout = "e-m:e-p270:32:32-p271:32:32-p272:64:64-i64:64-i128:128-f80:128-n8:16:32:64-S128"
target triple = "x86_64-pc-linux-gnu"

%struct.png_row_info_struct = type { i32, i64, i8, i8, i8, i8 }

; Function Attrs: nounwind uwtable
define internal <2 x i64> @load3(ptr noundef %0) #0 {
  %2 = alloca i32, align 4
  %3 = alloca <4 x i32>, align 16
  %4 = alloca ptr, align 8
  %5 = alloca i32, align 4
  store ptr %0, ptr %4, align 8
  store i32 0, ptr %5, align 4
  %6 = load ptr, ptr %4, align 8
  call void @llvm.memcpy.p0.p0.i64(ptr align 4 %5, ptr align 1 %6, i64 3, i1 false)
  %7 = load i32, ptr %5, align 4
  store i32 %7, ptr %2, align 4
  %8 = load i32, ptr %2, align 4
  %9 = insertelement <4 x i32> poison, i32 %8, i32 0
  %10 = insertelement <4 x i32> %9, i32 0, i32 1
  %11 = insertelement <4 x i32> %10, i32 0, i32 2
  %12 = insertelement <4 x i32> %11, i32 0, i32 3
  store <4 x i32> %12, ptr %3, align 16
  %13 = load <4 x i32>, ptr %3, align 16
  %14 = bitcast <4 x i32> %13 to <2 x i64>
  ret <2 x i64> %14
}

; Function Attrs: nounwind uwtable
define internal void @store3(ptr noundef %0, <2 x i64> noundef %1) #0 {
  %3 = alloca <2 x i64>, align 16
  %4 = alloca <4 x i32>, align 16
  %5 = alloca ptr, align 8
  %6 = alloca <2 x i64>, align 16
  %7 = alloca i32, align 4
  store ptr %0, ptr %5, align 8
  store <2 x i64> %1, ptr %6, align 16
  %8 = load <2 x i64>, ptr %6, align 16
  store <2 x i64> %8, ptr %3, align 16
  %9 = load <2 x i64>, ptr %3, align 16
  %10 = bitcast <2 x i64> %9 to <4 x i32>
  store <4 x i32> %10, ptr %4, align 16
  %11 = load <4 x i32>, ptr %4, align 16
  %12 = extractelement <4 x i32> %11, i32 0
  store i32 %12, ptr %7, align 4
  %13 = load ptr, ptr %5, align 8
  call void @llvm.memcpy.p0.p0.i64(ptr align 1 %13, ptr align 4 %7, i64 3, i1 false)
  ret void
}

; Function Attrs: nounwind uwtable
define internal <2 x i64> @load4(ptr noundef %0) #0 {
  %2 = alloca i32, align 4
  %3 = alloca <4 x i32>, align 16
  %4 = alloca ptr, align 8
  %5 = alloca i32, align 4
  store ptr %0, ptr %4, align 8
  %6 = load ptr, ptr %4, align 8
  call void @llvm.memcpy.p0.p0.i64(ptr align 4 %5, ptr align 1 %6, i64 4, i1 false)
  %7 = load i32, ptr %5, align 4
  store i32 %7, ptr %2, align 4
  %8 = load i32, ptr %2, align 4
  %9 = insertelement <4 x i32> poison, i32 %8, i32 0
  %10 = insertelement <4 x i32> %9, i32 0, i32 1
  %11 = insertelement <4 x i32> %10, i32 0, i32 2
  %12 = insertelement <4 x i32> %11, i32 0, i32 3
  store <4 x i32> %12, ptr %3, align 16
  %13 = load <4 x i32>, ptr %3, align 16
  %14 = bitcast <4 x i32> %13 to <2 x i64>
  ret <2 x i64> %14
}

; Function Attrs: nounwind uwtable
define void @png_read_filter_row_sub3_sse2(ptr noundef %0, ptr noundef %1, ptr noundef %2) #0 {
  %4 = alloca <2 x i64>, align 16
  %5 = alloca <2 x i64>, align 16
  %6 = alloca <2 x i64>, align 16
  %7 = alloca <2 x i64>, align 16
  %8 = alloca <2 x i64>, align 16
  %9 = alloca ptr, align 8
  %10 = alloca ptr, align 8
  %11 = alloca ptr, align 8
  %12 = alloca i64, align 8
  %13 = alloca <2 x i64>, align 16
  %14 = alloca <2 x i64>, align 16
  store ptr %0, ptr %9, align 8
  store ptr %1, ptr %10, align 8
  store ptr %2, ptr %11, align 8
  store <2 x i64> zeroinitializer, ptr %8, align 16
  %15 = load <2 x i64>, ptr %8, align 16
  store <2 x i64> %15, ptr %14, align 16
  %16 = load ptr, ptr %9, align 8
  %17 = getelementptr inbounds %struct.png_row_info_struct, ptr %16, i32 0, i32 1
  %18 = load i64, ptr %17, align 8
  store i64 %18, ptr %12, align 8
  br label %19

19:                                               ; preds = %22, %3
  %20 = load i64, ptr %12, align 8
  %21 = icmp uge i64 %20, 4
  br i1 %21, label %22, label %40

22:                                               ; preds = %19
  %23 = load <2 x i64>, ptr %14, align 16
  store <2 x i64> %23, ptr %13, align 16
  %24 = load ptr, ptr %10, align 8
  %25 = call <2 x i64> @load4(ptr noundef %24)
  store <2 x i64> %25, ptr %14, align 16
  %26 = load <2 x i64>, ptr %14, align 16
  %27 = load <2 x i64>, ptr %13, align 16
  store <2 x i64> %26, ptr %4, align 16
  store <2 x i64> %27, ptr %5, align 16
  %28 = load <2 x i64>, ptr %4, align 16
  %29 = bitcast <2 x i64> %28 to <16 x i8>
  %30 = load <2 x i64>, ptr %5, align 16
  %31 = bitcast <2 x i64> %30 to <16 x i8>
  %32 = add <16 x i8> %29, %31
  %33 = bitcast <16 x i8> %32 to <2 x i64>
  store <2 x i64> %33, ptr %14, align 16
  %34 = load ptr, ptr %10, align 8
  %35 = load <2 x i64>, ptr %14, align 16
  call void @store3(ptr noundef %34, <2 x i64> noundef %35)
  %36 = load ptr, ptr %10, align 8
  %37 = getelementptr inbounds i8, ptr %36, i64 3
  store ptr %37, ptr %10, align 8
  %38 = load i64, ptr %12, align 8
  %39 = sub i64 %38, 3
  store i64 %39, ptr %12, align 8
  br label %19, !llvm.loop !4

40:                                               ; preds = %19
  %41 = load i64, ptr %12, align 8
  %42 = icmp ugt i64 %41, 0
  br i1 %42, label %43, label %61

43:                                               ; preds = %40
  %44 = load <2 x i64>, ptr %14, align 16
  store <2 x i64> %44, ptr %13, align 16
  %45 = load ptr, ptr %10, align 8
  %46 = call <2 x i64> @load3(ptr noundef %45)
  store <2 x i64> %46, ptr %14, align 16
  %47 = load <2 x i64>, ptr %14, align 16
  %48 = load <2 x i64>, ptr %13, align 16
  store <2 x i64> %47, ptr %6, align 16
  store <2 x i64> %48, ptr %7, align 16
  %49 = load <2 x i64>, ptr %6, align 16
  %50 = bitcast <2 x i64> %49 to <16 x i8>
  %51 = load <2 x i64>, ptr %7, align 16
  %52 = bitcast <2 x i64> %51 to <16 x i8>
  %53 = add <16 x i8> %50, %52
  %54 = bitcast <16 x i8> %53 to <2 x i64>
  store <2 x i64> %54, ptr %14, align 16
  %55 = load ptr, ptr %10, align 8
  %56 = load <2 x i64>, ptr %14, align 16
  call void @store3(ptr noundef %55, <2 x i64> noundef %56)
  %57 = load ptr, ptr %10, align 8
  %58 = getelementptr inbounds i8, ptr %57, i64 3
  store ptr %58, ptr %10, align 8
  %59 = load i64, ptr %12, align 8
  %60 = sub i64 %59, 3
  store i64 %60, ptr %12, align 8
  br label %61

61:                                               ; preds = %43, %40
  ret void
}