; Function Attrs: nofree norecurse nosync nounwind memory(argmem: readwrite) uwtable
define void @png_read_filter_row_sub3_sse2(ptr noundef readonly captures(none) %0, ptr noundef captures(none) %1, ptr noundef readnone captures(none) %2) local_unnamed_addr #0 {
  %4 = getelementptr inbounds nuw i8, ptr %0, i64 8
  %5 = load i64, ptr %4, align 8
  %6 = icmp ugt i64 %5, 3
  br i1 %6, label %.lr.ph, label %._crit_edge

.lr.ph:                                           ; preds = %3, %.lr.ph
  %7 = phi <16 x i8> [ %10, %.lr.ph ], [ zeroinitializer, %3 ]
  %.02328 = phi i64 [ %14, %.lr.ph ], [ %5, %3 ]
  %.02427 = phi ptr [ %13, %.lr.ph ], [ %1, %3 ]
  %.024.val = load i32, ptr %.02427, align 1
  %8 = insertelement <4 x i32> <i32 poison, i32 0, i32 0, i32 0>, i32 %.024.val, i64 0
  %9 = bitcast <4 x i32> %8 to <16 x i8>
  %10 = add <16 x i8> %7, %9
  %11 = bitcast <16 x i8> %10 to <4 x i32>
  %12 = extractelement <4 x i32> %11, i64 0
  %.0.extract.trunc.i = trunc i32 %12 to i24
  store i24 %.0.extract.trunc.i, ptr %.02427, align 1
  %13 = getelementptr inbounds nuw i8, ptr %.02427, i64 3
  %14 = add i64 %.02328, -3
  %15 = icmp ugt i64 %14, 3
  br i1 %15, label %.lr.ph, label %._crit_edge.thread, !llvm.loop !4

._crit_edge:                                      ; preds = %3
  %.not = icmp eq i64 %5, 0
  br i1 %.not, label %21, label %._crit_edge.thread

._crit_edge.thread:                               ; preds = %.lr.ph, %._crit_edge
  %.lcssa39 = phi <16 x i8> [ zeroinitializer, %._crit_edge ], [ %10, %.lr.ph ]
  %.024.lcssa38 = phi ptr [ %1, %._crit_edge ], [ %13, %.lr.ph ]
  %.024.val25 = load i24, ptr %.024.lcssa38, align 1
  %.0.insert.ext.i = zext i24 %.024.val25 to i32
  %16 = insertelement <4 x i32> poison, i32 %.0.insert.ext.i, i64 0
  %17 = bitcast <4 x i32> %16 to <16 x i8>
  %18 = add <16 x i8> %.lcssa39, %17
  %19 = bitcast <16 x i8> %18 to <4 x i32>
  %20 = extractelement <4 x i32> %19, i64 0
  %.0.extract.trunc.i26 = trunc i32 %20 to i24
  store i24 %.0.extract.trunc.i26, ptr %.024.lcssa38, align 1
  br label %21

21:                                               ; preds = %._crit_edge.thread, %._crit_edge
  ret void
}